; Function Attrs: mustprogress nofree norecurse nosync nounwind willreturn memory(argmem: read) uwtable
define dso_local noundef ptr @_ZNK15cmCustomCommand10GetCommentEv(ptr noundef nonnull readonly align 8 captures(none) dereferenceable(348) %0) local_unnamed_addr #7 align 2 {
  %2 = getelementptr inbounds nuw i8, ptr %0, i64 329
  %3 = load i8, ptr %2, align 1, !tbaa !56, !range !48, !noundef !49
  %4 = trunc nuw i8 %3 to i1
  %5 = getelementptr inbounds nuw i8, ptr %0, i64 168
  %6 = load ptr, ptr %5, align 8
  %7 = select i1 %4, ptr %6, ptr null
  ret ptr %7
}